target datalayout = "e-m:e-p270:32:32-p271:32:32-p272:64:64-i64:64-i128:128-f80:128-n8:16:32:64-S128"
target triple = "x86_64-pc-linux-gnu"

%"class.boost::locale::impl_icu::collate_impl" = type <{ %"class.boost::locale::collator.base", [4 x i8], %"class.boost::locale::impl_icu::icu_std_converter", %"class.icu_70::Locale", [5 x %"class.boost::thread_specific_ptr"], i8, [7 x i8] }>
%"class.boost::locale::collator.base" = type { %"class.std::locale::facet.base" }
%"class.std::locale::facet.base" = type <{ ptr, i32 }>
%"class.boost::locale::impl_icu::icu_std_converter" = type <{ %"struct.boost::locale::impl_icu::uconv", i32, [4 x i8] }>
%"struct.boost::locale::impl_icu::uconv" = type { %"class.boost::locale::impl_icu::icu_handle" }
%"class.boost::locale::impl_icu::icu_handle" = type { ptr }
%"class.icu_70::Locale" = type <{ %"class.icu_70::UObject", [12 x i8], [6 x i8], [4 x i8], [2 x i8], i32, [4 x i8], ptr, [157 x i8], [3 x i8], ptr, i8, [7 x i8] }>
%"class.icu_70::UObject" = type { ptr }
%"class.boost::thread_specific_ptr" = type { ptr }
%"class.icu_70::StringPiece" = type <{ ptr, i32, [4 x i8] }>

; Function Attrs: mustprogress nounwind uwtable
define linkonce_odr hidden void @_ZN6icu_7011StringPieceC2EPKci(ptr noundef nonnull align 8 dereferenceable(12) %0, ptr noundef %1, i32 noundef %2) unnamed_addr #2 comdat align 2 {
  %4 = alloca ptr, align 8
  %5 = alloca ptr, align 8
  %6 = alloca i32, align 4
  store ptr %0, ptr %4, align 8, !tbaa !3
  store ptr %1, ptr %5, align 8, !tbaa !3
  store i32 %2, ptr %6, align 4, !tbaa !41
  %7 = load ptr, ptr %4, align 8
  %8 = getelementptr inbounds nuw %"class.icu_70::StringPiece", ptr %7, i32 0, i32 0
  %9 = load ptr, ptr %5, align 8, !tbaa !3
  store ptr %9, ptr %8, align 8, !tbaa !62
  %10 = getelementptr inbounds nuw %"class.icu_70::StringPiece", ptr %7, i32 0, i32 1
  %11 = load i32, ptr %6, align 4, !tbaa !41
  store i32 %11, ptr %10, align 8, !tbaa !64
  ret void
}

; Function Attrs: mustprogress uwtable
define linkonce_odr hidden noundef i32 @_ZNK5boost6locale8impl_icu12collate_implIcE15do_utf8_compareENS0_13collate_levelEPKcS6_S6_S6_R10UErrorCode(ptr noundef nonnull align 8 dereferenceable(297) %0, i32 noundef %1, ptr noundef %2, ptr noundef %3, ptr noundef %4, ptr noundef %5, ptr noundef nonnull align 4 dereferenceable(4) %6) #3 comdat align 2 {
  %8 = alloca ptr, align 8
  %9 = alloca i32, align 4
  %10 = alloca ptr, align 8
  %11 = alloca ptr, align 8
  %12 = alloca ptr, align 8
  %13 = alloca ptr, align 8
  %14 = alloca ptr, align 8
  %15 = alloca %"class.icu_70::StringPiece", align 8
  %16 = alloca %"class.icu_70::StringPiece", align 8
  store ptr %0, ptr %8, align 8, !tbaa !3
  store i32 %1, ptr %9, align 4, !tbaa !7
  store ptr %2, ptr %10, align 8, !tbaa !3
  store ptr %3, ptr %11, align 8, !tbaa !3
  store ptr %4, ptr %12, align 8, !tbaa !3
  store ptr %5, ptr %13, align 8, !tbaa !3
  store ptr %6, ptr %14, align 8, !tbaa !3
  %17 = load ptr, ptr %8, align 8
  call void @llvm.lifetime.start.p0(i64 16, ptr %15) #7
  %18 = load ptr, ptr %10, align 8, !tbaa !3
  %19 = load ptr, ptr %11, align 8, !tbaa !3
  %20 = load ptr, ptr %10, align 8, !tbaa !3
  %21 = ptrtoint ptr %19 to i64
  %22 = ptrtoint ptr %20 to i64
  %23 = sub i64 %21, %22
  %24 = trunc i64 %23 to i32
  call void @_ZN6icu_7011StringPieceC2EPKci(ptr noundef nonnull align 8 dereferenceable(12) %15, ptr noundef %18, i32 noundef %24)
  call void @llvm.lifetime.start.p0(i64 16, ptr %16) #7
  %25 = load ptr, ptr %12, align 8, !tbaa !3
  %26 = load ptr, ptr %13, align 8, !tbaa !3
  %27 = load ptr, ptr %12, align 8, !tbaa !3
  %28 = ptrtoint ptr %26 to i64
  %29 = ptrtoint ptr %27 to i64
  %30 = sub i64 %28, %29
  %31 = trunc i64 %30 to i32
  call void @_ZN6icu_7011StringPieceC2EPKci(ptr noundef nonnull align 8 dereferenceable(12) %16, ptr noundef %25, i32 noundef %31)
  %32 = load i32, ptr %9, align 4, !tbaa !7
  %33 = call noundef nonnull align 8 dereferenceable(8) ptr @_ZNK5boost6locale8impl_icu12collate_implIcE12get_collatorENS0_13collate_levelE(ptr noundef nonnull align 8 dereferenceable(297) %17, i32 noundef %32)
  %34 = load ptr, ptr %14, align 8, !tbaa !3
  %35 = load ptr, ptr %33, align 8, !tbaa !22
  %36 = getelementptr inbounds ptr, ptr %35, i64 13
  %37 = load ptr, ptr %36, align 8
  %38 = call noundef i32 %37(ptr noundef nonnull align 8 dereferenceable(8) %33, ptr noundef nonnull align 8 dereferenceable(12) %15, ptr noundef nonnull align 8 dereferenceable(12) %16, ptr noundef nonnull align 4 dereferenceable(4) %34)
  call void @llvm.lifetime.end.p0(i64 16, ptr %16) #7
  call void @llvm.lifetime.end.p0(i64 16, ptr %15) #7
  ret i32 %38
}

; Function Attrs: mustprogress uwtable
define hidden noundef i32 @_ZNK5boost6locale8impl_icu12collate_implIcE15do_real_compareENS0_13collate_levelEPKcS6_S6_S6_R10UErrorCode(ptr noundef nonnull align 8 dereferenceable(297) %0, i32 noundef %1, ptr noundef %2, ptr noundef %3, ptr noundef %4, ptr noundef %5, ptr noundef nonnull align 4 dereferenceable(4) %6) #3 align 2 {
  %8 = alloca i32, align 4
  %9 = alloca ptr, align 8
  %10 = alloca i32, align 4
  %11 = alloca ptr, align 8
  %12 = alloca ptr, align 8
  %13 = alloca ptr, align 8
  %14 = alloca ptr, align 8
  %15 = alloca ptr, align 8
  store ptr %0, ptr %9, align 8, !tbaa !3
  store i32 %1, ptr %10, align 4, !tbaa !7
  store ptr %2, ptr %11, align 8, !tbaa !3
  store ptr %3, ptr %12, align 8, !tbaa !3
  store ptr %4, ptr %13, align 8, !tbaa !3
  store ptr %5, ptr %14, align 8, !tbaa !3
  store ptr %6, ptr %15, align 8, !tbaa !3
  %16 = load ptr, ptr %9, align 8
  %17 = getelementptr inbounds nuw %"class.boost::locale::impl_icu::collate_impl", ptr %16, i32 0, i32 5
  %18 = load i8, ptr %17, align 8, !tbaa !9, !range !20, !noundef !21
  %19 = trunc i8 %18 to i1
  br i1 %19, label %20, label %28

20:                                               ; preds = %7
  %21 = load i32, ptr %10, align 4, !tbaa !7
  %22 = load ptr, ptr %11, align 8, !tbaa !3
  %23 = load ptr, ptr %12, align 8, !tbaa !3
  %24 = load ptr, ptr %13, align 8, !tbaa !3
  %25 = load ptr, ptr %14, align 8, !tbaa !3
  %26 = load ptr, ptr %15, align 8, !tbaa !3
  %27 = call noundef i32 @_ZNK5boost6locale8impl_icu12collate_implIcE15do_utf8_compareENS0_13collate_levelEPKcS6_S6_S6_R10UErrorCode(ptr noundef nonnull align 8 dereferenceable(297) %16, i32 noundef %21, ptr noundef %22, ptr noundef %23, ptr noundef %24, ptr noundef %25, ptr noundef nonnull align 4 dereferenceable(4) %26)
  store i32 %27, ptr %8, align 4
  br label %36

28:                                               ; preds = %7
  %29 = load i32, ptr %10, align 4, !tbaa !7
  %30 = load ptr, ptr %11, align 8, !tbaa !3
  %31 = load ptr, ptr %12, align 8, !tbaa !3
  %32 = load ptr, ptr %13, align 8, !tbaa !3
  %33 = load ptr, ptr %14, align 8, !tbaa !3
  %34 = load ptr, ptr %15, align 8, !tbaa !3
  %35 = call noundef i32 @_ZNK5boost6locale8impl_icu12collate_implIcE18do_ustring_compareENS0_13collate_levelEPKcS6_S6_S6_R10UErrorCode(ptr noundef nonnull align 8 dereferenceable(297) %16, i32 noundef %29, ptr noundef %30, ptr noundef %31, ptr noundef %32, ptr noundef %33, ptr noundef nonnull align 4 dereferenceable(4) %34)
  store i32 %35, ptr %8, align 4
  br label %36

36:                                               ; preds = %28, %20
  %37 = load i32, ptr %8, align 4
  ret i32 %37
}