; Function Attrs: mustprogress uwtable
define hidden noundef i32 @_ZNK5boost6locale8impl_icu12collate_implIcE15do_real_compareENS0_13collate_levelEPKcS6_S6_S6_R10UErrorCode(ptr noundef nonnull align 8 dereferenceable(297) %0, i32 noundef %1, ptr noundef %2, ptr noundef %3, ptr noundef %4, ptr noundef %5, ptr noundef nonnull align 4 dereferenceable(4) %6) local_unnamed_addr #3 align 2 {
  %8 = alloca %"class.icu_70::StringPiece", align 8
  %9 = alloca %"class.icu_70::StringPiece", align 8
  %10 = getelementptr inbounds nuw i8, ptr %0, i64 296
  %11 = load i8, ptr %10, align 8, !tbaa !14, !range !25, !noundef !26
  %12 = trunc nuw i8 %11 to i1
  br i1 %12, label %13, label %29

13:                                               ; preds = %7
  call void @llvm.lifetime.start.p0(i64 16, ptr nonnull %8) #23
  %14 = ptrtoint ptr %3 to i64
  %15 = ptrtoint ptr %2 to i64
  %16 = sub i64 %14, %15
  %17 = trunc i64 %16 to i32
  store ptr %2, ptr %8, align 8, !tbaa !27
  %18 = getelementptr inbounds nuw i8, ptr %8, i64 8
  store i32 %17, ptr %18, align 8, !tbaa !29
  call void @llvm.lifetime.start.p0(i64 16, ptr nonnull %9) #23
  %19 = ptrtoint ptr %5 to i64
  %20 = ptrtoint ptr %4 to i64
  %21 = sub i64 %19, %20
  %22 = trunc i64 %21 to i32
  store ptr %4, ptr %9, align 8, !tbaa !27
  %23 = getelementptr inbounds nuw i8, ptr %9, i64 8
  store i32 %22, ptr %23, align 8, !tbaa !29
  %24 = tail call noundef nonnull align 8 dereferenceable(8) ptr @_ZNK5boost6locale8impl_icu12collate_implIcE12get_collatorENS0_13collate_levelE(ptr noundef nonnull align 8 dereferenceable(297) %0, i32 noundef %1)
  %25 = load ptr, ptr %24, align 8, !tbaa !30
  %26 = getelementptr inbounds i8, ptr %25, i64 104
  %27 = load ptr, ptr %26, align 8
  %28 = call noundef i32 %27(ptr noundef nonnull align 8 dereferenceable(8) %24, ptr noundef nonnull align 8 dereferenceable(12) %8, ptr noundef nonnull align 8 dereferenceable(12) %9, ptr noundef nonnull align 4 dereferenceable(4) %6)
  call void @llvm.lifetime.end.p0(i64 16, ptr nonnull %9) #23
  call void @llvm.lifetime.end.p0(i64 16, ptr nonnull %8) #23
  br label %31

29:                                               ; preds = %7
  %30 = tail call noundef i32 @_ZNK5boost6locale8impl_icu12collate_implIcE18do_ustring_compareENS0_13collate_levelEPKcS6_S6_S6_R10UErrorCode(ptr noundef nonnull align 8 dereferenceable(297) %0, i32 noundef %1, ptr noundef %2, ptr noundef %3, ptr noundef %4, ptr noundef %5, ptr noundef nonnull align 4 dereferenceable(4) %6)
  br label %31

31:                                               ; preds = %29, %13
  %.0 = phi i32 [ %28, %13 ], [ %30, %29 ]
  ret i32 %.0
}